target datalayout = "e-m:e-p270:32:32-p271:32:32-p272:64:64-i64:64-i128:128-f80:128-n8:16:32:64-S128"
target triple = "x86_64-pc-linux-gnu"

%"class.std::__cxx11::basic_string" = type { %"struct.std::__cxx11::basic_string<char>::_Alloc_hider", i64, %union.anon }
%"struct.std::__cxx11::basic_string<char>::_Alloc_hider" = type { ptr }
%union.anon = type { i64, [8 x i8] }
%"struct.ue2::ue2_literal" = type { %"class.std::__cxx11::basic_string", %"class.boost::dynamic_bitset" }
%"class.boost::dynamic_bitset" = type { %"class.std::vector", i64 }
%"class.std::vector" = type { %"struct.std::_Vector_base" }
%"struct.std::_Vector_base" = type { %"struct.std::_Vector_base<unsigned long, std::allocator<unsigned long>>::_Vector_impl" }
%"struct.std::_Vector_base<unsigned long, std::allocator<unsigned long>>::_Vector_impl" = type { %"struct.std::_Vector_base<unsigned long, std::allocator<unsigned long>>::_Vector_impl_data" }
%"struct.std::_Vector_base<unsigned long, std::allocator<unsigned long>>::_Vector_impl_data" = type { ptr, ptr, ptr }
%"class.ue2::ue2_literal::const_iterator" = type { ptr, i64 }
%"struct.ue2::ue2_literal::elem" = type { i8, i8 }
%"struct.boost::is_convertible" = type { i8 }

@_ZZNK5boost17integral_constantIbLb1EEcvRKN4mpl_5bool_ILb1EEEEvE5pdata = linkonce_odr hidden global ptr @_ZZNK5boost17integral_constantIbLb1EEcvRKN4mpl_5bool_ILb1EEEEvE4data, comdat, align 8

; Function Attrs: mustprogress nounwind uwtable
define linkonce_odr hidden noundef i64 @_ZN5boost14dynamic_bitsetImSaImEE9bit_indexEm(i64 noundef %0) #2 comdat align 2 {
  %2 = alloca i64, align 8
  store i64 %0, ptr %2, align 8
  %3 = load i64, ptr %2, align 8
  %4 = urem i64 %3, 64
  ret i64 %4
}

; Function Attrs: mustprogress nounwind uwtable
define linkonce_odr hidden noundef i64 @_ZN5boost14dynamic_bitsetImSaImEE8bit_maskEm(i64 noundef %0) #2 comdat align 2 {
  %2 = alloca i64, align 8
  store i64 %0, ptr %2, align 8
  %3 = load i64, ptr %2, align 8
  %4 = call noundef i64 @_ZN5boost14dynamic_bitsetImSaImEE9bit_indexEm(i64 noundef %3) #17
  %5 = shl i64 1, %4
  ret i64 %5
}

; Function Attrs: mustprogress nounwind uwtable
define linkonce_odr dso_local noundef nonnull align 8 dereferenceable(8) ptr @_ZNKSt6vectorImSaImEEixEm(ptr noundef nonnull align 8 dereferenceable(24) %0, i64 noundef %1) #2 comdat align 2 {
  %3 = alloca ptr, align 8
  %4 = alloca i64, align 8
  store ptr %0, ptr %3, align 8
  store i64 %1, ptr %4, align 8
  %5 = load ptr, ptr %3, align 8
  %6 = getelementptr inbounds nuw %"struct.std::_Vector_base", ptr %5, i32 0, i32 0
  %7 = getelementptr inbounds nuw %"struct.std::_Vector_base<unsigned long, std::allocator<unsigned long>>::_Vector_impl_data", ptr %6, i32 0, i32 0
  %8 = load ptr, ptr %7, align 8
  %9 = load i64, ptr %4, align 8
  %10 = getelementptr inbounds nuw i64, ptr %8, i64 %9
  ret ptr %10
}

; Function Attrs: mustprogress nounwind uwtable
define linkonce_odr hidden noundef i64 @_ZN5boost14dynamic_bitsetImSaImEE11block_indexEm(i64 noundef %0) #2 comdat align 2 {
  %2 = alloca i64, align 8
  store i64 %0, ptr %2, align 8
  %3 = load i64, ptr %2, align 8
  %4 = udiv i64 %3, 64
  ret i64 %4
}

; Function Attrs: mustprogress nounwind uwtable
define linkonce_odr hidden noundef zeroext i1 @_ZNK5boost14dynamic_bitsetImSaImEE16m_unchecked_testEm(ptr noundef nonnull align 8 dereferenceable(32) %0, i64 noundef %1) #2 comdat align 2 {
  %3 = alloca ptr, align 8
  %4 = alloca i64, align 8
  store ptr %0, ptr %3, align 8
  store i64 %1, ptr %4, align 8
  %5 = load ptr, ptr %3, align 8
  %6 = getelementptr inbounds nuw %"class.boost::dynamic_bitset", ptr %5, i32 0, i32 0
  %7 = load i64, ptr %4, align 8
  %8 = call noundef i64 @_ZN5boost14dynamic_bitsetImSaImEE11block_indexEm(i64 noundef %7) #17
  %9 = call noundef nonnull align 8 dereferenceable(8) ptr @_ZNKSt6vectorImSaImEEixEm(ptr noundef nonnull align 8 dereferenceable(24) %6, i64 noundef %8) #17
  %10 = load i64, ptr %9, align 8
  %11 = load i64, ptr %4, align 8
  %12 = call noundef i64 @_ZN5boost14dynamic_bitsetImSaImEE8bit_maskEm(i64 noundef %11) #17
  %13 = and i64 %10, %12
  %14 = icmp ne i64 %13, 0
  ret i1 %14
}

; Function Attrs: mustprogress uwtable
define linkonce_odr hidden noundef zeroext i1 @_ZNK5boost14dynamic_bitsetImSaImEE4testEm(ptr noundef nonnull align 8 dereferenceable(32) %0, i64 noundef %1) #0 comdat align 2 {
  %3 = alloca ptr, align 8
  %4 = alloca i64, align 8
  store ptr %0, ptr %3, align 8
  store i64 %1, ptr %4, align 8
  %5 = load ptr, ptr %3, align 8
  %6 = load i64, ptr %4, align 8
  %7 = call noundef zeroext i1 @_ZNK5boost14dynamic_bitsetImSaImEE16m_unchecked_testEm(ptr noundef nonnull align 8 dereferenceable(32) %5, i64 noundef %6)
  ret i1 %7
}

; Function Attrs: mustprogress nounwind uwtable
define available_externally noundef ptr @_ZNKSt7__cxx1112basic_stringIcSt11char_traitsIcESaIcEE7_M_dataEv(ptr noundef nonnull align 8 dereferenceable(32) %0) #2 align 2 {
  %2 = alloca ptr, align 8
  store ptr %0, ptr %2, align 8
  %3 = load ptr, ptr %2, align 8
  %4 = getelementptr inbounds nuw %"class.std::__cxx11::basic_string", ptr %3, i32 0, i32 0
  %5 = getelementptr inbounds nuw %"struct.std::__cxx11::basic_string<char>::_Alloc_hider", ptr %4, i32 0, i32 0
  %6 = load ptr, ptr %5, align 8
  ret ptr %6
}

; Function Attrs: mustprogress nounwind uwtable
define linkonce_odr hidden void @_ZN3ue211ue2_literal4elemC2Ecb(ptr noundef nonnull align 1 dereferenceable(2) %0, i8 noundef signext %1, i1 noundef zeroext %2) unnamed_addr #2 comdat align 2 {
  %4 = alloca ptr, align 8
  %5 = alloca i8, align 1
  %6 = alloca i8, align 1
  store ptr %0, ptr %4, align 8
  store i8 %1, ptr %5, align 1
  %7 = zext i1 %2 to i8
  store i8 %7, ptr %6, align 1
  %8 = load ptr, ptr %4, align 8
  %9 = getelementptr inbounds nuw %"struct.ue2::ue2_literal::elem", ptr %8, i32 0, i32 0
  %10 = load i8, ptr %5, align 1
  store i8 %10, ptr %9, align 1
  %11 = getelementptr inbounds nuw %"struct.ue2::ue2_literal::elem", ptr %8, i32 0, i32 1
  %12 = load i8, ptr %6, align 1, !range !5, !noundef !6
  %13 = trunc i8 %12 to i1
  %14 = zext i1 %13 to i8
  store i8 %14, ptr %11, align 1
  ret void
}

; Function Attrs: mustprogress uwtable
define linkonce_odr hidden noundef zeroext i1 @_ZNK5boost14dynamic_bitsetImSaImEEixEm(ptr noundef nonnull align 8 dereferenceable(32) %0, i64 noundef %1) #0 comdat align 2 {
  %3 = alloca ptr, align 8
  %4 = alloca i64, align 8
  store ptr %0, ptr %3, align 8
  store i64 %1, ptr %4, align 8
  %5 = load ptr, ptr %3, align 8
  %6 = load i64, ptr %4, align 8
  %7 = call noundef zeroext i1 @_ZNK5boost14dynamic_bitsetImSaImEE4testEm(ptr noundef nonnull align 8 dereferenceable(32) %5, i64 noundef %6)
  ret i1 %7
}

; Function Attrs: mustprogress nounwind uwtable
define available_externally noundef nonnull align 1 dereferenceable(1) ptr @_ZNKSt7__cxx1112basic_stringIcSt11char_traitsIcESaIcEEixEm(ptr noundef nonnull align 8 dereferenceable(32) %0, i64 noundef %1) #2 align 2 {
  %3 = alloca ptr, align 8
  %4 = alloca i64, align 8
  store ptr %0, ptr %3, align 8
  store i64 %1, ptr %4, align 8
  %5 = load ptr, ptr %3, align 8
  br label %6

6:                                                ; preds = %2
  br label %7

7:                                                ; preds = %6
  br label %8

8:                                                ; preds = %7
  %9 = call noundef ptr @_ZNKSt7__cxx1112basic_stringIcSt11char_traitsIcESaIcEE7_M_dataEv(ptr noundef nonnull align 8 dereferenceable(32) %5)
  %10 = load i64, ptr %4, align 8
  %11 = getelementptr inbounds nuw i8, ptr %9, i64 %10
  ret ptr %11
}

; Function Attrs: mustprogress nounwind uwtable
define linkonce_odr hidden noundef zeroext i1 @_ZNK3ue211ue2_literal14const_iterator5equalERKS1_(ptr noundef nonnull align 8 dereferenceable(16) %0, ptr noundef nonnull align 8 dereferenceable(16) %1) #2 comdat align 2 {
  %3 = alloca ptr, align 8
  %4 = alloca ptr, align 8
  store ptr %0, ptr %3, align 8
  store ptr %1, ptr %4, align 8
  %5 = load ptr, ptr %3, align 8
  %6 = getelementptr inbounds nuw %"class.ue2::ue2_literal::const_iterator", ptr %5, i32 0, i32 1
  %7 = load i64, ptr %6, align 8
  %8 = load ptr, ptr %4, align 8
  %9 = getelementptr inbounds nuw %"class.ue2::ue2_literal::const_iterator", ptr %8, i32 0, i32 1
  %10 = load i64, ptr %9, align 8
  %11 = icmp eq i64 %7, %10
  br i1 %11, label %12, label %19

12:                                               ; preds = %2
  %13 = getelementptr inbounds nuw %"class.ue2::ue2_literal::const_iterator", ptr %5, i32 0, i32 0
  %14 = load ptr, ptr %13, align 8
  %15 = load ptr, ptr %4, align 8
  %16 = getelementptr inbounds nuw %"class.ue2::ue2_literal::const_iterator", ptr %15, i32 0, i32 0
  %17 = load ptr, ptr %16, align 8
  %18 = icmp eq ptr %14, %17
  br label %19

19:                                               ; preds = %12, %2
  %20 = phi i1 [ false, %2 ], [ %18, %12 ]
  ret i1 %20
}

; Function Attrs: mustprogress nounwind uwtable
define linkonce_odr hidden void @_ZN3ue211ue2_literal14const_iterator9incrementEv(ptr noundef nonnull align 8 dereferenceable(16) %0) #2 comdat align 2 {
  %2 = alloca ptr, align 8
  store ptr %0, ptr %2, align 8
  %3 = load ptr, ptr %2, align 8
  %4 = getelementptr inbounds nuw %"class.ue2::ue2_literal::const_iterator", ptr %3, i32 0, i32 1
  %5 = load i64, ptr %4, align 8
  %6 = add i64 %5, 1
  store i64 %6, ptr %4, align 8
  ret void
}

; Function Attrs: mustprogress uwtable
define linkonce_odr hidden i16 @_ZNK3ue211ue2_literal14const_iterator11dereferenceEv(ptr noundef nonnull align 8 dereferenceable(16) %0) #0 comdat align 2 {
  %2 = alloca %"struct.ue2::ue2_literal::elem", align 1
  %3 = alloca ptr, align 8
  store ptr %0, ptr %3, align 8
  %4 = load ptr, ptr %3, align 8
  %5 = getelementptr inbounds nuw %"class.ue2::ue2_literal::const_iterator", ptr %4, i32 0, i32 0
  %6 = load ptr, ptr %5, align 8
  %7 = getelementptr inbounds nuw %"struct.ue2::ue2_literal", ptr %6, i32 0, i32 0
  %8 = getelementptr inbounds nuw %"class.ue2::ue2_literal::const_iterator", ptr %4, i32 0, i32 1
  %9 = load i64, ptr %8, align 8
  %10 = call noundef nonnull align 1 dereferenceable(1) ptr @_ZNKSt7__cxx1112basic_stringIcSt11char_traitsIcESaIcEEixEm(ptr noundef nonnull align 8 dereferenceable(32) %7, i64 noundef %9) #17
  %11 = load i8, ptr %10, align 1
  %12 = getelementptr inbounds nuw %"class.ue2::ue2_literal::const_iterator", ptr %4, i32 0, i32 0
  %13 = load ptr, ptr %12, align 8
  %14 = getelementptr inbounds nuw %"struct.ue2::ue2_literal", ptr %13, i32 0, i32 1
  %15 = getelementptr inbounds nuw %"class.ue2::ue2_literal::const_iterator", ptr %4, i32 0, i32 1
  %16 = load i64, ptr %15, align 8
  %17 = call noundef zeroext i1 @_ZNK5boost14dynamic_bitsetImSaImEEixEm(ptr noundef nonnull align 8 dereferenceable(32) %14, i64 noundef %16)
  call void @_ZN3ue211ue2_literal4elemC2Ecb(ptr noundef nonnull align 1 dereferenceable(2) %2, i8 noundef signext %11, i1 noundef zeroext %17)
  %18 = load i16, ptr %2, align 1
  ret i16 %18
}

; Function Attrs: mustprogress uwtable
define linkonce_odr hidden noundef zeroext i1 @_ZN5boost9iterators20iterator_core_access5equalIN3ue211ue2_literal14const_iteratorES5_EEbRKT_RKT0_N4mpl_5bool_ILb1EEE(ptr noundef nonnull align 8 dereferenceable(16) %0, ptr noundef nonnull align 8 dereferenceable(16) %1) #0 comdat align 2 {
  %3 = alloca ptr, align 8
  %4 = alloca ptr, align 8
  store ptr %0, ptr %3, align 8
  store ptr %1, ptr %4, align 8
  %5 = load ptr, ptr %3, align 8
  %6 = load ptr, ptr %4, align 8
  %7 = call noundef zeroext i1 @_ZNK3ue211ue2_literal14const_iterator5equalERKS1_(ptr noundef nonnull align 8 dereferenceable(16) %5, ptr noundef nonnull align 8 dereferenceable(16) %6)
  ret i1 %7
}

; Function Attrs: mustprogress nounwind uwtable
define linkonce_odr hidden noundef nonnull align 1 dereferenceable(1) ptr @_ZNK5boost17integral_constantIbLb1EEcvRKN4mpl_5bool_ILb1EEEEv(ptr noundef nonnull align 1 dereferenceable(1) %0) #2 comdat align 2 {
  %2 = alloca ptr, align 8
  store ptr %0, ptr %2, align 8
  %3 = load ptr, ptr @_ZZNK5boost17integral_constantIbLb1EEcvRKN4mpl_5bool_ILb1EEEEvE5pdata, align 8
  ret ptr %3
}

; Function Attrs: mustprogress uwtable
define linkonce_odr hidden void @_ZN5boost9iterators20iterator_core_access9incrementIN3ue211ue2_literal14const_iteratorEEEvRT_(ptr noundef nonnull align 8 dereferenceable(16) %0) #0 comdat align 2 {
  %2 = alloca ptr, align 8
  store ptr %0, ptr %2, align 8
  %3 = load ptr, ptr %2, align 8
  call void @_ZN3ue211ue2_literal14const_iterator9incrementEv(ptr noundef nonnull align 8 dereferenceable(16) %3)
  ret void
}

; Function Attrs: mustprogress nounwind uwtable
define linkonce_odr hidden noundef nonnull align 8 dereferenceable(16) ptr @_ZN5boost9iterators6detail20iterator_facade_baseIN3ue211ue2_literal14const_iteratorEKNS4_4elemENS0_27random_access_traversal_tagES7_lLb0ELb0EE7derivedEv(ptr noundef nonnull align 1 dereferenceable(1) %0) #2 comdat align 2 {
  %2 = alloca ptr, align 8
  store ptr %0, ptr %2, align 8
  %3 = load ptr, ptr %2, align 8
  ret ptr %3
}

; Function Attrs: mustprogress uwtable
define linkonce_odr hidden i16 @_ZN5boost9iterators20iterator_core_access11dereferenceIN3ue211ue2_literal14const_iteratorEEENT_9referenceERKS6_(ptr noundef nonnull align 8 dereferenceable(16) %0) #0 comdat align 2 {
  %2 = alloca %"struct.ue2::ue2_literal::elem", align 1
  %3 = alloca ptr, align 8
  store ptr %0, ptr %3, align 8
  %4 = load ptr, ptr %3, align 8
  %5 = call i16 @_ZNK3ue211ue2_literal14const_iterator11dereferenceEv(ptr noundef nonnull align 8 dereferenceable(16) %4)
  store i16 %5, ptr %2, align 1
  %6 = load i16, ptr %2, align 1
  ret i16 %6
}

; Function Attrs: mustprogress nounwind uwtable
define linkonce_odr hidden noundef nonnull align 8 dereferenceable(16) ptr @_ZNK5boost9iterators6detail20iterator_facade_baseIN3ue211ue2_literal14const_iteratorEKNS4_4elemENS0_27random_access_traversal_tagES7_lLb0ELb0EE7derivedEv(ptr noundef nonnull align 1 dereferenceable(1) %0) #2 comdat align 2 {
  %2 = alloca ptr, align 8
  store ptr %0, ptr %2, align 8
  %3 = load ptr, ptr %2, align 8
  ret ptr %3
}

; Function Attrs: mustprogress nounwind uwtable
define available_externally noundef i64 @_ZNKSt7__cxx1112basic_stringIcSt11char_traitsIcESaIcEE4sizeEv(ptr noundef nonnull align 8 dereferenceable(32) %0) #2 align 2 {
  %2 = alloca ptr, align 8
  store ptr %0, ptr %2, align 8
  %3 = load ptr, ptr %2, align 8
  %4 = getelementptr inbounds nuw %"class.std::__cxx11::basic_string", ptr %3, i32 0, i32 1
  %5 = load i64, ptr %4, align 8
  ret i64 %5
}

; Function Attrs: mustprogress nounwind uwtable
define linkonce_odr hidden void @_ZN3ue211ue2_literal14const_iteratorC2ERKS0_m(ptr noundef nonnull align 8 dereferenceable(16) %0, ptr noundef nonnull align 8 dereferenceable(64) %1, i64 noundef %2) unnamed_addr #2 comdat align 2 {
  %4 = alloca ptr, align 8
  %5 = alloca ptr, align 8
  %6 = alloca i64, align 8
  store ptr %0, ptr %4, align 8
  store ptr %1, ptr %5, align 8
  store i64 %2, ptr %6, align 8
  %7 = load ptr, ptr %4, align 8
  %8 = getelementptr inbounds nuw %"class.ue2::ue2_literal::const_iterator", ptr %7, i32 0, i32 0
  %9 = load ptr, ptr %5, align 8
  store ptr %9, ptr %8, align 8
  %10 = getelementptr inbounds nuw %"class.ue2::ue2_literal::const_iterator", ptr %7, i32 0, i32 1
  %11 = load i64, ptr %6, align 8
  store i64 %11, ptr %10, align 8
  ret void
}

; Function Attrs: mustprogress nounwind uwtable
define linkonce_odr hidden noundef zeroext i1 @_ZNK3ue211ue2_literal4elemneERKS1_(ptr noundef nonnull align 1 dereferenceable(2) %0, ptr noundef nonnull align 1 dereferenceable(2) %1) #2 comdat align 2 {
  %3 = alloca ptr, align 8
  %4 = alloca ptr, align 8
  store ptr %0, ptr %3, align 8
  store ptr %1, ptr %4, align 8
  %5 = load ptr, ptr %3, align 8
  %6 = getelementptr inbounds nuw %"struct.ue2::ue2_literal::elem", ptr %5, i32 0, i32 0
  %7 = load i8, ptr %6, align 1
  %8 = sext i8 %7 to i32
  %9 = load ptr, ptr %4, align 8
  %10 = getelementptr inbounds nuw %"struct.ue2::ue2_literal::elem", ptr %9, i32 0, i32 0
  %11 = load i8, ptr %10, align 1
  %12 = sext i8 %11 to i32
  %13 = icmp ne i32 %8, %12
  br i1 %13, label %25, label %14

14:                                               ; preds = %2
  %15 = getelementptr inbounds nuw %"struct.ue2::ue2_literal::elem", ptr %5, i32 0, i32 1
  %16 = load i8, ptr %15, align 1, !range !5, !noundef !6
  %17 = trunc i8 %16 to i1
  %18 = zext i1 %17 to i32
  %19 = load ptr, ptr %4, align 8
  %20 = getelementptr inbounds nuw %"struct.ue2::ue2_literal::elem", ptr %19, i32 0, i32 1
  %21 = load i8, ptr %20, align 1, !range !5, !noundef !6
  %22 = trunc i8 %21 to i1
  %23 = zext i1 %22 to i32
  %24 = icmp ne i32 %18, %23
  br label %25

25:                                               ; preds = %14, %2
  %26 = phi i1 [ true, %2 ], [ %24, %14 ]
  ret i1 %26
}

; Function Attrs: inlinehint mustprogress uwtable
define linkonce_odr hidden noundef zeroext i1 @_ZN5boost9iteratorsneIN3ue211ue2_literal14const_iteratorEKNS3_4elemENS0_27random_access_traversal_tagES6_lS4_S6_S7_S6_lEENS0_6detail23enable_if_interoperableIT_T4_NS_3mpl6apply2INS8_12always_bool2ESA_SB_E4typeEE4typeERKNS0_15iterator_facadeISA_T0_T1_T2_T3_EERKNSJ_ISB_T5_T6_T7_T8_EE(ptr noundef nonnull align 1 dereferenceable(1) %0, ptr noundef nonnull align 1 dereferenceable(1) %1) #6 comdat {
  %3 = alloca ptr, align 8
  %4 = alloca ptr, align 8
  %5 = alloca %"struct.boost::is_convertible", align 1
  store ptr %0, ptr %3, align 8
  store ptr %1, ptr %4, align 8
  %6 = load ptr, ptr %3, align 8
  %7 = load ptr, ptr %4, align 8
  call void @llvm.lifetime.start.p0(i64 1, ptr %5) #17
  %8 = call noundef nonnull align 1 dereferenceable(1) ptr @_ZNK5boost17integral_constantIbLb1EEcvRKN4mpl_5bool_ILb1EEEEv(ptr noundef nonnull align 1 dereferenceable(1) %5)
  %9 = call noundef zeroext i1 @_ZN5boost9iterators20iterator_core_access5equalIN3ue211ue2_literal14const_iteratorES5_EEbRKT_RKT0_N4mpl_5bool_ILb1EEE(ptr noundef nonnull align 8 dereferenceable(16) %6, ptr noundef nonnull align 8 dereferenceable(16) %7)
  %10 = xor i1 %9, true
  call void @llvm.lifetime.end.p0(i64 1, ptr %5) #17
  ret i1 %10
}

; Function Attrs: mustprogress uwtable
define linkonce_odr hidden noundef nonnull align 8 dereferenceable(16) ptr @_ZN5boost9iterators6detail20iterator_facade_baseIN3ue211ue2_literal14const_iteratorEKNS4_4elemENS0_27random_access_traversal_tagES7_lLb0ELb0EEppEv(ptr noundef nonnull align 1 dereferenceable(1) %0) #0 comdat align 2 {
  %2 = alloca ptr, align 8
  store ptr %0, ptr %2, align 8
  %3 = load ptr, ptr %2, align 8
  %4 = call noundef nonnull align 8 dereferenceable(16) ptr @_ZN5boost9iterators6detail20iterator_facade_baseIN3ue211ue2_literal14const_iteratorEKNS4_4elemENS0_27random_access_traversal_tagES7_lLb0ELb0EE7derivedEv(ptr noundef nonnull align 1 dereferenceable(1) %3)
  call void @_ZN5boost9iterators20iterator_core_access9incrementIN3ue211ue2_literal14const_iteratorEEEvRT_(ptr noundef nonnull align 8 dereferenceable(16) %4)
  %5 = call noundef nonnull align 8 dereferenceable(16) ptr @_ZN5boost9iterators6detail20iterator_facade_baseIN3ue211ue2_literal14const_iteratorEKNS4_4elemENS0_27random_access_traversal_tagES7_lLb0ELb0EE7derivedEv(ptr noundef nonnull align 1 dereferenceable(1) %3)
  ret ptr %5
}

; Function Attrs: mustprogress uwtable
define linkonce_odr hidden i16 @_ZNK5boost9iterators6detail20iterator_facade_baseIN3ue211ue2_literal14const_iteratorEKNS4_4elemENS0_27random_access_traversal_tagES7_lLb0ELb0EEdeEv(ptr noundef nonnull align 1 dereferenceable(1) %0) #0 comdat align 2 {
  %2 = alloca %"struct.ue2::ue2_literal::elem", align 1
  %3 = alloca ptr, align 8
  store ptr %0, ptr %3, align 8
  %4 = load ptr, ptr %3, align 8
  %5 = call noundef nonnull align 8 dereferenceable(16) ptr @_ZNK5boost9iterators6detail20iterator_facade_baseIN3ue211ue2_literal14const_iteratorEKNS4_4elemENS0_27random_access_traversal_tagES7_lLb0ELb0EE7derivedEv(ptr noundef nonnull align 1 dereferenceable(1) %4)
  %6 = call i16 @_ZN5boost9iterators20iterator_core_access11dereferenceIN3ue211ue2_literal14const_iteratorEEENT_9referenceERKS6_(ptr noundef nonnull align 8 dereferenceable(16) %5)
  store i16 %6, ptr %2, align 1
  %7 = load i16, ptr %2, align 1
  ret i16 %7
}

; Function Attrs: mustprogress uwtable
define linkonce_odr hidden { ptr, i64 } @_ZNK3ue211ue2_literal3endEv(ptr noundef nonnull align 8 dereferenceable(64) %0) #0 comdat align 2 {
  %2 = alloca %"class.ue2::ue2_literal::const_iterator", align 8
  %3 = alloca ptr, align 8
  store ptr %0, ptr %3, align 8
  %4 = load ptr, ptr %3, align 8
  %5 = getelementptr inbounds nuw %"struct.ue2::ue2_literal", ptr %4, i32 0, i32 0
  %6 = call noundef i64 @_ZNKSt7__cxx1112basic_stringIcSt11char_traitsIcESaIcEE4sizeEv(ptr noundef nonnull align 8 dereferenceable(32) %5) #17
  call void @_ZN3ue211ue2_literal14const_iteratorC2ERKS0_m(ptr noundef nonnull align 8 dereferenceable(16) %2, ptr noundef nonnull align 8 dereferenceable(64) %4, i64 noundef %6)
  %7 = load { ptr, i64 }, ptr %2, align 8
  ret { ptr, i64 } %7
}

; Function Attrs: mustprogress uwtable
define linkonce_odr hidden { ptr, i64 } @_ZNK3ue211ue2_literal5beginEv(ptr noundef nonnull align 8 dereferenceable(64) %0) #0 comdat align 2 {
  %2 = alloca %"class.ue2::ue2_literal::const_iterator", align 8
  %3 = alloca ptr, align 8
  store ptr %0, ptr %3, align 8
  %4 = load ptr, ptr %3, align 8
  call void @_ZN3ue211ue2_literal14const_iteratorC2ERKS0_m(ptr noundef nonnull align 8 dereferenceable(16) %2, ptr noundef nonnull align 8 dereferenceable(64) %4, i64 noundef 0)
  %5 = load { ptr, i64 }, ptr %2, align 8
  ret { ptr, i64 } %5
}

; Function Attrs: mustprogress uwtable
define hidden noundef zeroext i1 @_ZN3ue28is_floodERKNS_11ue2_literalE(ptr noundef nonnull align 8 dereferenceable(64) %0) #0 {
  %2 = alloca i1, align 1
  %3 = alloca ptr, align 8
  %4 = alloca %"class.ue2::ue2_literal::const_iterator", align 8
  %5 = alloca %"class.ue2::ue2_literal::const_iterator", align 8
  %6 = alloca %"struct.ue2::ue2_literal::elem", align 1
  %7 = alloca %"struct.ue2::ue2_literal::elem", align 1
  %8 = alloca i32, align 4
  store ptr %0, ptr %3, align 8
  call void @llvm.lifetime.start.p0(i64 16, ptr %4) #17
  %9 = load ptr, ptr %3, align 8
  %10 = call { ptr, i64 } @_ZNK3ue211ue2_literal5beginEv(ptr noundef nonnull align 8 dereferenceable(64) %9)
  %11 = getelementptr inbounds nuw { ptr, i64 }, ptr %4, i32 0, i32 0
  %12 = extractvalue { ptr, i64 } %10, 0
  store ptr %12, ptr %11, align 8
  %13 = getelementptr inbounds nuw { ptr, i64 }, ptr %4, i32 0, i32 1
  %14 = extractvalue { ptr, i64 } %10, 1
  store i64 %14, ptr %13, align 8
  call void @llvm.lifetime.start.p0(i64 16, ptr %5) #17
  %15 = load ptr, ptr %3, align 8
  %16 = call { ptr, i64 } @_ZNK3ue211ue2_literal3endEv(ptr noundef nonnull align 8 dereferenceable(64) %15)
  %17 = getelementptr inbounds nuw { ptr, i64 }, ptr %5, i32 0, i32 0
  %18 = extractvalue { ptr, i64 } %16, 0
  store ptr %18, ptr %17, align 8
  %19 = getelementptr inbounds nuw { ptr, i64 }, ptr %5, i32 0, i32 1
  %20 = extractvalue { ptr, i64 } %16, 1
  store i64 %20, ptr %19, align 8
  call void @llvm.lifetime.start.p0(i64 2, ptr %6) #17
  %21 = call i16 @_ZNK5boost9iterators6detail20iterator_facade_baseIN3ue211ue2_literal14const_iteratorEKNS4_4elemENS0_27random_access_traversal_tagES7_lLb0ELb0EEdeEv(ptr noundef nonnull align 1 dereferenceable(1) %4)
  store i16 %21, ptr %6, align 1
  %22 = call noundef nonnull align 8 dereferenceable(16) ptr @_ZN5boost9iterators6detail20iterator_facade_baseIN3ue211ue2_literal14const_iteratorEKNS4_4elemENS0_27random_access_traversal_tagES7_lLb0ELb0EEppEv(ptr noundef nonnull align 1 dereferenceable(1) %4)
  br label %23

23:                                               ; preds = %30, %1
  %24 = call noundef zeroext i1 @_ZN5boost9iteratorsneIN3ue211ue2_literal14const_iteratorEKNS3_4elemENS0_27random_access_traversal_tagES6_lS4_S6_S7_S6_lEENS0_6detail23enable_if_interoperableIT_T4_NS_3mpl6apply2INS8_12always_bool2ESA_SB_E4typeEE4typeERKNS0_15iterator_facadeISA_T0_T1_T2_T3_EERKNSJ_ISB_T5_T6_T7_T8_EE(ptr noundef nonnull align 1 dereferenceable(1) %4, ptr noundef nonnull align 1 dereferenceable(1) %5)
  br i1 %24, label %25, label %32

25:                                               ; preds = %23
  call void @llvm.lifetime.start.p0(i64 2, ptr %7) #17
  %26 = call i16 @_ZNK5boost9iterators6detail20iterator_facade_baseIN3ue211ue2_literal14const_iteratorEKNS4_4elemENS0_27random_access_traversal_tagES7_lLb0ELb0EEdeEv(ptr noundef nonnull align 1 dereferenceable(1) %4)
  store i16 %26, ptr %7, align 1
  %27 = call noundef zeroext i1 @_ZNK3ue211ue2_literal4elemneERKS1_(ptr noundef nonnull align 1 dereferenceable(2) %7, ptr noundef nonnull align 1 dereferenceable(2) %6)
  call void @llvm.lifetime.end.p0(i64 2, ptr %7) #17
  br i1 %27, label %28, label %29

28:                                               ; preds = %25
  store i1 false, ptr %2, align 1
  store i32 1, ptr %8, align 4
  br label %33

29:                                               ; preds = %25
  br label %30

30:                                               ; preds = %29
  %31 = call noundef nonnull align 8 dereferenceable(16) ptr @_ZN5boost9iterators6detail20iterator_facade_baseIN3ue211ue2_literal14const_iteratorEKNS4_4elemENS0_27random_access_traversal_tagES7_lLb0ELb0EEppEv(ptr noundef nonnull align 1 dereferenceable(1) %4)
  br label %23, !llvm.loop !23

32:                                               ; preds = %23
  store i1 true, ptr %2, align 1
  store i32 1, ptr %8, align 4
  br label %33

33:                                               ; preds = %32, %28
  call void @llvm.lifetime.end.p0(i64 2, ptr %6) #17
  call void @llvm.lifetime.end.p0(i64 16, ptr %5) #17
  call void @llvm.lifetime.end.p0(i64 16, ptr %4) #17
  %34 = load i1, ptr %2, align 1
  ret i1 %34
}