; Function Attrs: mustprogress nofree norecurse nosync nounwind willreturn memory(read, inaccessiblemem: none) uwtable
define hidden noundef zeroext i1 @_ZN3ue28is_floodERKNS_11ue2_literalE(ptr noundef nonnull readonly align 8 captures(none) dereferenceable(64) %0) local_unnamed_addr #4 {
  %2 = getelementptr inbounds nuw i8, ptr %0, i64 8
  %3 = load i64, ptr %2, align 8
  %4 = load ptr, ptr %0, align 8
  %5 = load i8, ptr %4, align 1
  %6 = getelementptr inbounds nuw i8, ptr %0, i64 32
  %7 = load ptr, ptr %6, align 8
  %8 = load i64, ptr %7, align 8
  %.not20 = icmp eq i64 %3, 1
  br i1 %.not20, label %._crit_edge, label %.lr.ph

.lr.ph:                                           ; preds = %1, %.lr.ph
  %.sroa.6.021 = phi i64 [ %19, %.lr.ph ], [ 1, %1 ]
  %9 = getelementptr inbounds nuw i8, ptr %4, i64 %.sroa.6.021
  %10 = load i8, ptr %9, align 1
  %11 = lshr i64 %.sroa.6.021, 6
  %12 = getelementptr inbounds nuw i64, ptr %7, i64 %11
  %13 = load i64, ptr %12, align 8
  %14 = and i64 %.sroa.6.021, 63
  %15 = lshr i64 %13, %14
  %.not.i = icmp eq i8 %10, %5
  %16 = xor i64 %15, %8
  %17 = and i64 %16, 1
  %18 = icmp eq i64 %17, 0
  %.not26 = select i1 %.not.i, i1 %18, i1 false
  %19 = add i64 %.sroa.6.021, 1
  %.not = icmp ne i64 %19, %3
  %or.cond.not = and i1 %.not, %.not26
  br i1 %or.cond.not, label %.lr.ph, label %._crit_edge, !llvm.loop !32

._crit_edge:                                      ; preds = %.lr.ph, %1
  %.not.lcssa = phi i1 [ true, %1 ], [ %.not26, %.lr.ph ]
  ret i1 %.not.lcssa
}